; Function Attrs: mustprogress nounwind uwtable
define internal fastcc void @_ZN12_GLOBAL__N_114ODRTypeVisitor16VisitBuiltinTypeEPKN5clang11BuiltinTypeE(ptr nonnull %.0.val, i32 %.16.val) unnamed_addr #0 align 2 {
  %1 = tail call noundef i64 @_ZNK4llvm15SmallVectorBaseIjE4sizeEv(ptr noundef nonnull align 8 dereferenceable(144) %.0.val) #14
  %2 = add i64 %1, 1
  %3 = tail call noundef i64 @_ZNK4llvm15SmallVectorBaseIjE8capacityEv(ptr noundef nonnull align 8 dereferenceable(144) %.0.val) #14
  %.not.i.i.i.i = icmp ugt i64 %2, %3
  br i1 %.not.i.i.i.i, label %4, label %_ZN4llvm16FoldingSetNodeID10AddIntegerEi.exit

4:                                                ; preds = %0
  %5 = getelementptr inbounds nuw i8, ptr %.0.val, i64 16
  tail call void @_ZN4llvm15SmallVectorBaseIjE8grow_podEPvmm(ptr noundef nonnull align 8 dereferenceable(144) %.0.val, ptr noundef nonnull %5, i64 noundef %2, i64 noundef 4) #14
  br label %_ZN4llvm16FoldingSetNodeID10AddIntegerEi.exit

_ZN4llvm16FoldingSetNodeID10AddIntegerEi.exit:    ; preds = %0, %4
  %6 = lshr i32 %.16.val, 19
  %7 = and i32 %6, 511
  %8 = load ptr, ptr %.0.val, align 8
  %9 = tail call noundef i64 @_ZNK4llvm15SmallVectorBaseIjE4sizeEv(ptr noundef nonnull align 8 dereferenceable(144) %.0.val) #14
  %10 = getelementptr inbounds i32, ptr %8, i64 %9
  store i32 %7, ptr %10, align 1
  %11 = tail call noundef i64 @_ZNK4llvm15SmallVectorBaseIjE4sizeEv(ptr noundef nonnull align 8 dereferenceable(144) %.0.val) #14
  %12 = add i64 %11, 1
  tail call void @_ZN4llvm15SmallVectorBaseIjE8set_sizeEm(ptr noundef nonnull align 8 dereferenceable(144) %.0.val, i64 noundef %12) #14
  ret void
}